target datalayout = "e-m:e-p270:32:32-p271:32:32-p272:64:64-i64:64-i128:128-f80:128-n8:16:32:64-S128"
target triple = "x86_64-pc-linux-gnu"

%struct._zval_struct = type { %union._zend_value, %union.anon, %union.anon.2 }
%union._zend_value = type { i64 }
%union.anon = type { i32 }
%union.anon.2 = type { i32 }
%struct._zend_refcounted_h = type { i32, %union.anon.3 }
%union.anon.3 = type { i32 }

@zend_string_init_interned = external global ptr, align 8

; Function Attrs: nounwind uwtable
define void @php_register_known_variable(ptr noundef %0, i64 noundef %1, ptr noundef %2, ptr noundef %3) #0 {
  %5 = alloca ptr, align 8
  %6 = alloca i32, align 4
  %7 = alloca ptr, align 8
  %8 = alloca i8, align 1
  %9 = alloca ptr, align 8
  %10 = alloca i64, align 8
  %11 = alloca ptr, align 8
  %12 = alloca ptr, align 8
  %13 = alloca ptr, align 8
  %14 = alloca ptr, align 8
  %15 = alloca i64, align 8
  %16 = alloca ptr, align 8
  %17 = alloca ptr, align 8
  %18 = alloca ptr, align 8
  store ptr %0, ptr %14, align 8
  store i64 %1, ptr %15, align 8
  store ptr %2, ptr %16, align 8
  store ptr %3, ptr %17, align 8
  store ptr null, ptr %18, align 8
  %19 = load ptr, ptr %14, align 8
  %20 = icmp ne ptr %19, null
  call void @llvm.assume(i1 %20)
  %21 = load i64, ptr %15, align 8
  %22 = icmp ne i64 %21, 0
  call void @llvm.assume(i1 %22)
  %23 = load ptr, ptr %17, align 8
  %24 = getelementptr inbounds %struct._zval_struct, ptr %23, i32 0, i32 0
  %25 = load ptr, ptr %24, align 8
  store ptr %25, ptr %18, align 8
  %26 = load ptr, ptr %14, align 8
  %27 = load i64, ptr %15, align 8
  %28 = load ptr, ptr %16, align 8
  %29 = load ptr, ptr %18, align 8
  store ptr %26, ptr %9, align 8
  store i64 %27, ptr %10, align 8
  store ptr %28, ptr %11, align 8
  store ptr %29, ptr %12, align 8
  %30 = load ptr, ptr @zend_string_init_interned, align 8
  %31 = load ptr, ptr %9, align 8
  %32 = load i64, ptr %10, align 8
  %33 = call ptr %30(ptr noundef %31, i64 noundef %32, i1 noundef zeroext false) #13
  store ptr %33, ptr %13, align 8
  %34 = load ptr, ptr %12, align 8
  %35 = load ptr, ptr %13, align 8
  %36 = load ptr, ptr %11, align 8
  %37 = call ptr @zend_hash_update_ind(ptr noundef %34, ptr noundef %35, ptr noundef %36) #13
  %38 = load ptr, ptr %13, align 8
  store ptr %38, ptr %7, align 8
  store i8 0, ptr %8, align 1
  %39 = load ptr, ptr %7, align 8
  %40 = getelementptr inbounds %struct._zend_refcounted_h, ptr %39, i32 0, i32 1
  %41 = load i32, ptr %40, align 4
  store i32 %41, ptr %6, align 4
  %42 = load i32, ptr %6, align 4
  %43 = and i32 %42, 1008
  %44 = and i32 %43, 64
  %45 = icmp ne i32 %44, 0
  br i1 %45, label %64, label %46

46:                                               ; preds = %4
  %47 = load ptr, ptr %7, align 8
  store ptr %47, ptr %5, align 8
  %48 = load ptr, ptr %5, align 8
  %49 = load i32, ptr %48, align 4
  %50 = icmp ugt i32 %49, 0
  call void @llvm.assume(i1 %50)
  %51 = load ptr, ptr %5, align 8
  %52 = load i32, ptr %51, align 4
  %53 = add i32 %52, -1
  store i32 %53, ptr %51, align 4
  %54 = icmp eq i32 %53, 0
  br i1 %54, label %55, label %63

55:                                               ; preds = %46
  %56 = load i8, ptr %8, align 1
  %57 = trunc i8 %56 to i1
  br i1 %57, label %58, label %60

58:                                               ; preds = %55
  %59 = load ptr, ptr %7, align 8
  call void @free(ptr noundef %59) #13
  br label %62

60:                                               ; preds = %55
  %61 = load ptr, ptr %7, align 8
  call void @_efree(ptr noundef %61) #13
  br label %62

62:                                               ; preds = %60, %58
  br label %63

63:                                               ; preds = %62, %46
  br label %64

64:                                               ; preds = %63, %4
  ret void
}