; Function Attrs: nounwind uwtable
define void @php_register_known_variable(ptr noundef %0, i64 noundef %1, ptr noundef %2, ptr nocapture noundef readonly %3) local_unnamed_addr #0 {
  %5 = icmp ne ptr %0, null
  tail call void @llvm.assume(i1 %5)
  %6 = icmp ne i64 %1, 0
  tail call void @llvm.assume(i1 %6)
  %7 = load ptr, ptr %3, align 8
  %8 = load ptr, ptr @zend_string_init_interned, align 8
  %9 = tail call ptr %8(ptr noundef nonnull %0, i64 noundef %1, i1 noundef zeroext false) #17
  %10 = tail call ptr @zend_hash_update_ind(ptr noundef %7, ptr noundef %9, ptr noundef %2) #17
  %11 = getelementptr inbounds i8, ptr %9, i64 4
  %12 = load i32, ptr %11, align 4
  %13 = and i32 %12, 64
  %.not = icmp eq i32 %13, 0
  br i1 %.not, label %14, label %20

14:                                               ; preds = %4
  %15 = load i32, ptr %9, align 4
  %16 = icmp ne i32 %15, 0
  tail call void @llvm.assume(i1 %16)
  %17 = add i32 %15, -1
  store i32 %17, ptr %9, align 4
  %18 = icmp eq i32 %17, 0
  br i1 %18, label %19, label %20

19:                                               ; preds = %14
  tail call void @_efree(ptr noundef nonnull %9) #17
  br label %20

20:                                               ; preds = %14, %19, %4
  ret void
}